Certificate:
    Data:
        Version: 3 (0x2)
        Serial Number: 14857940800283358055 (0xce32026fe6ac3367)
    Signature Algorithm: sha256WithRSAEncryption
        Issuer: C=US, ST=New York, L=New York, O=Keybase, OU=Keybase Local Test Certificate, CN=*.kbfs.local/emailAddress=test@keybase.io
        Validity
            Not Before: Feb  9 07:25:57 2016 GMT
            Not After : Nov  4 07:25:57 2018 GMT
        Subject: C=US, ST=New York, L=New York, O=Keybase, OU=Keybase Local Test Certificate, CN=*.kbfs.local/emailAddress=test@keybase.io
        Subject Public Key Info:
            Public Key Algorithm: rsaEncryption
                Public-Key: (2048 bit)
                Modulus:
                    00:c1:e0:ae:61:be:bf:2f:4c:0a:dd:bb:c3:14:1b:
                    1b:34:16:54:e2:46:f0:ef:02:ac:f2:2a:a5:a2:fe:
                    d3:0e:af:65:cb:ad:7b:af:a0:cb:7a:66:3d:d2:b0:
                    ad:56:e2:a2:31:18:77:a1:5e:82:32:ca:9b:74:b0:
                    14:e8:14:a8:94:26:6f:5b:ba:d0:80:e1:56:2d:f1:
                    ea:d2:1a:a7:c1:b1:43:ce:60:10:d4:41:24:1a:95:
                    16:e8:20:1b:f9:96:54:42:92:7e:f1:84:e5:74:25:
                    d7:70:79:f9:72:ef:45:d5:c6:29:93:01:6c:58:0f:
                    35:d2:de:12:4b:57:7e:2c:24:31:93:57:05:e1:08:
                    c9:ae:b9:dc:b5:30:52:a5:5b:77:6c:39:b4:f5:bc:
                    cd:6f:3f:47:b9:c4:3e:61:c0:f6:7b:96:71:e8:98:
                    58:04:40:1a:f6:21:1d:7e:4a:61:de:41:8b:64:4f:
                    91:32:cc:21:8b:94:60:e9:ea:e4:7c:61:84:35:bf:
                    ec:4d:55:49:59:2c:71:10:6d:17:94:64:7d:c0:0f:
                    70:54:0f:a7:f8:c3:9d:19:e6:07:a9:1f:3f:5f:a3:
                    be:c4:ef:a1:2a:1b:6e:be:13:09:b6:3a:01:b5:39:
                    7e:9a:4c:13:8d:92:cf:43:03:2c:b5:85:53:29:68:
                    2d:ad
                Exponent: 65537 (0x10001)
        X509v3 extensions:
            X509v3 Subject Key Identifier: 
                34:B8:55:24:9A:AF:02:A5:E3:D3:E2:36:28:71:07:DD:7D:C3:52:C5
            X509v3 Authority Key Identifier: 
                keyid:34:B8:55:24:9A:AF:02:A5:E3:D3:E2:36:28:71:07:DD:7D:C3:52:C5

            X509v3 Basic Constraints: 
                CA:TRUE
    Signature Algorithm: sha256WithRSAEncryption
         b3:d5:6b:2c:f5:6d:02:ab:4a:55:aa:64:e6:9b:f0:db:49:40:
         b2:a3:b6:aa:cd:42:74:9f:16:97:ba:5b:ab:a3:9d:df:ad:c3:
         62:b1:1f:34:55:56:85:73:ad:01:ae:6b:38:de:53:0d:65:ae:
         6f:a4:79:e9:6a:d3:60:c5:e8:ed:47:03:e4:5c:5f:f1:43:ec:
         c9:fe:ba:49:0f:54:fd:48:c2:f2:70:d9:04:f6:53:9d:85:f7:
         d4:d9:ac:08:d9:51:f4:92:c7:7f:98:b7:80:67:cf:ec:d7:88:
         8d:fb:c1:56:63:2a:6e:85:d6:b6:ac:9c:a2:bb:f8:21:77:4d:
         43:d5:14:09:be:7b:ec:dc:e9:c0:d5:f6:20:e1:cb:55:4b:91:
         86:3d:8a:6b:07:eb:dd:69:29:8c:17:b8:92:c7:f2:01:ce:0a:
         f0:9a:69:1c:7d:ff:ae:71:80:d6:ba:06:21:bd:34:02:fd:26:
         cc:a3:b0:a4:36:70:33:78:f2:1c:c0:31:03:ca:f6:48:8e:c6:
         62:80:7c:28:cb:66:2b:04:63:91:12:11:95:99:50:08:61:04:
         cc:a0:35:60:e5:94:92:7f:1a:31:8d:09:02:97:0a:fc:e7:b6:
         56:dd:71:a6:58:4e:ba:b3:b6:ff:bb:e3:93:6f:da:22:f7:ca:
         ef:e5:94:8a
-----BEGIN CERTIFICATE-----
MIIEHzCCAwegAwIBAgIJAM4yAm/mrDNnMA0GCSqGSIb3DQEBCwUAMIGlMQswCQYD
VQQGEwJVUzERMA8GA1UECAwITmV3IFlvcmsxETAPBgNVBAcMCE5ldyBZb3JrMRAw
DgYDVQQKDAdLZXliYXNlMScwJQYDVQQLDB5LZXliYXNlIExvY2FsIFRlc3QgQ2Vy
dGlmaWNhdGUxFTATBgNVBAMMDCoua2Jmcy5sb2NhbDEeMBwGCSqGSIb3DQEJARYP
dGVzdEBrZXliYXNlLmlvMB4XDTE2MDIwOTA3MjU1N1oXDTE4MTEwNDA3MjU1N1ow
gaUxCzAJBgNVBAYTAlVTMREwDwYDVQQIDAhOZXcgWW9yazERMA8GA1UEBwwITmV3
IFlvcmsxEDAOBgNVBAoMB0tleWJhc2UxJzAlBgNVBAsMHktleWJhc2UgTG9jYWwg
VGVzdCBDZXJ0aWZpY2F0ZTEVMBMGA1UEAwwMKi5rYmZzLmxvY2FsMR4wHAYJKoZI
hvcNAQkBFg90ZXN0QGtleWJhc2UuaW8wggEiMA0GCSqGSIb3DQEBAQUAA4IBDwAw
ggEKAoIBAQDB4K5hvr8vTArdu8MUGxs0FlTiRvDvAqzyKqWi/tMOr2XLrXuvoMt6
Zj3SsK1W4qIxGHehXoIyypt0sBToFKiUJm9butCA4VYt8erSGqfBsUPOYBDUQSQa
lRboIBv5llRCkn7xhOV0Jddwefly70XVximTAWxYDzXS3hJLV34sJDGTVwXhCMmu
udy1MFKlW3dsObT1vM1vP0e5xD5hwPZ7lnHomFgEQBr2IR1+SmHeQYtkT5EyzCGL
lGDp6uR8YYQ1v+xNVUlZLHEQbReUZH3AD3BUD6f4w50Z5gepHz9fo77E76EqG26+
Ewm2OgG1OX6aTBONks9DAyy1hVMpaC2tAgMBAAGjUDBOMB0GA1UdDgQWBBQ0uFUk
mq8CpePT4jYocQfdfcNSxTAfBgNVHSMEGDAWgBQ0uFUkmq8CpePT4jYocQfdfcNS
xTAMBgNVHRMEBTADAQH/MA0GCSqGSIb3DQEBCwUAA4IBAQCz1Wss9W0Cq0pVqmTm
m/DbSUCyo7aqzUJ0nxaXuluro53frcNisR80VVaFc60Brms43lMNZa5vpHnpatNg
xejtRwPkXF/xQ+zJ/rpJD1T9SMLycNkE9lOdhffU2awI2VH0ksd/mLeAZ8/s14iN
+8FWYypuhda2rJyiu/ghd01D1RQJvnvs3OnA1fYg4ctVS5GGPYprB+vdaSmMF7iS
x/IBzgrwmmkcff+ucYDWugYhvTQC/SbMo7CkNnAzePIcwDEDyvZIjsZigHwoy2Yr
BGOREhGVmVAIYQTMoDVg5ZSSfxoxjQkClwr857ZW3XGmWE66s7b/u+OTb9oi98rv
5ZSK
-----END CERTIFICATE-----
